(dp0
Vengine
p1
Vxelatex
p2
sVpackages
p3
c__builtin__
set
p4
((lp5
tp6
Rp7
sVfiles_with_guttermarks
p8
g4
((lp9
V/usr/local/texlive/2014/texmf-dist/tex/latex/hyperref/hyperref.sty
p10
aS'template.tex'
p11
aV/Users/KSauby/Documents/Projects/thesisdownufl/inst/rmarkdown/templates/thesis/skeleton/./template.tex
p12
atp13
Rp14
sVsynctex
p15
I01
s.